(lp0
S'poi'
p1
aS'deferral_payments'
p2
aS'total_payments'
p3
aS'loan_advances'
p4
aS'restricted_stock_deferred'
p5
aS'deferred_income'
p6
aS'expenses'
p7
aS'exercised_stock_options'
p8
aS'long_term_incentive'
p9
aS'from_this_person_to_poi'
p10
aS'perc_from_poi'
p11
a.